; ModuleID = '11/312.c'
source_filename = "11/312.c"
target datalayout = "e-m:e-p270:32:32-p271:32:32-p272:64:64-i64:64-f80:128-n8:16:32:64-S128"
target triple = "x86_64-pc-linux-gnu"

@.str = private unnamed_addr constant [7 x i8] c"%d%d%d\00", align 1
@.str.1 = private unnamed_addr constant [4 x i8] c"%d\0A\00", align 1

; Function Attrs: noinline nounwind uwtable
define dso_local i32 @main() #0 {
  %1 = alloca i32, align 4
  %2 = alloca i32, align 4
  %3 = alloca i32, align 4
  %4 = alloca i32, align 4
  %5 = alloca i32, align 4
  %6 = alloca i32, align 4
  store i32 0, i32* %1, align 4
  %7 = call i32 (i8*, ...) @__isoc99_scanf(i8* getelementptr inbounds ([7 x i8], [7 x i8]* @.str, i64 0, i64 0), i32* %2, i32* %3, i32* %4)
  store i32 1, i32* %5, align 4
  store i32 0, i32* %6, align 4
  br label %8

8:                                                ; preds = %60, %0
  %9 = load i32, i32* %5, align 4
  %10 = load i32, i32* %3, align 4
  %11 = icmp slt i32 %9, %10
  br i1 %11, label %12, label %63

12:                                               ; preds = %8
  %13 = load i32, i32* %5, align 4
  %14 = icmp eq i32 %13, 1
  br i1 %14, label %30, label %15

15:                                               ; preds = %12
  %16 = load i32, i32* %5, align 4
  %17 = icmp eq i32 %16, 3
  br i1 %17, label %30, label %18

18:                                               ; preds = %15
  %19 = load i32, i32* %5, align 4
  %20 = icmp eq i32 %19, 5
  br i1 %20, label %30, label %21

21:                                               ; preds = %18
  %22 = load i32, i32* %5, align 4
  %23 = icmp eq i32 %22, 7
  br i1 %23, label %30, label %24

24:                                               ; preds = %21
  %25 = load i32, i32* %5, align 4
  %26 = icmp eq i32 %25, 8
  br i1 %26, label %30, label %27

27:                                               ; preds = %24
  %28 = load i32, i32* %5, align 4
  %29 = icmp eq i32 %28, 10
  br i1 %29, label %30, label %33

30:                                               ; preds = %27, %24, %21, %18, %15, %12
  %31 = load i32, i32* %6, align 4
  %32 = add nsw i32 %31, 31
  store i32 %32, i32* %6, align 4
  br label %59

33:                                               ; preds = %27
  %34 = load i32, i32* %5, align 4
  %35 = icmp eq i32 %34, 2
  br i1 %35, label %36, label %55

36:                                               ; preds = %33
  %37 = load i32, i32* %2, align 4
  %38 = srem i32 %37, 4
  %39 = icmp eq i32 %38, 0
  br i1 %39, label %40, label %44

40:                                               ; preds = %36
  %41 = load i32, i32* %2, align 4
  %42 = srem i32 %41, 100
  %43 = icmp ne i32 %42, 0
  br i1 %43, label %48, label %44

44:                                               ; preds = %40, %36
  %45 = load i32, i32* %2, align 4
  %46 = srem i32 %45, 400
  %47 = icmp eq i32 %46, 0
  br i1 %47, label %48, label %51

48:                                               ; preds = %44, %40
  %49 = load i32, i32* %6, align 4
  %50 = add nsw i32 %49, 29
  store i32 %50, i32* %6, align 4
  br label %54

51:                                               ; preds = %44
  %52 = load i32, i32* %6, align 4
  %53 = add nsw i32 %52, 28
  store i32 %53, i32* %6, align 4
  br label %54

54:                                               ; preds = %51, %48
  br label %58

55:                                               ; preds = %33
  %56 = load i32, i32* %6, align 4
  %57 = add nsw i32 %56, 30
  store i32 %57, i32* %6, align 4
  br label %58

58:                                               ; preds = %55, %54
  br label %59

59:                                               ; preds = %58, %30
  br label %60

60:                                               ; preds = %59
  %61 = load i32, i32* %5, align 4
  %62 = add nsw i32 %61, 1
  store i32 %62, i32* %5, align 4
  br label %8

63:                                               ; preds = %8
  %64 = load i32, i32* %6, align 4
  %65 = load i32, i32* %4, align 4
  %66 = add nsw i32 %64, %65
  store i32 %66, i32* %6, align 4
  %67 = load i32, i32* %6, align 4
  %68 = call i32 (i8*, ...) @printf(i8* getelementptr inbounds ([4 x i8], [4 x i8]* @.str.1, i64 0, i64 0), i32 %67)
  ret i32 0
}

declare dso_local i32 @__isoc99_scanf(i8*, ...) #1

declare dso_local i32 @printf(i8*, ...) #1


!llvm.module.flags = !{!0}
!llvm.ident = !{!1}

!0 = !{i32 1, !"wchar_size", i32 4}
!1 = !{!"clang version 10.0.0-4ubuntu1 "}
